target datalayout = "e-m:e-p270:32:32-p271:32:32-p272:64:64-i64:64-i128:128-f80:128-n8:16:32:64-S128"
target triple = "x86_64-pc-linux-gnu"

; Function Attrs: nounwind uwtable
define zeroext i8 @Java_sun_awt_X11_XlibWrapper_XkbLibraryVersion(ptr noundef %0, ptr noundef %1, i64 noundef %2, i64 noundef %3) #0 {
  %5 = alloca ptr, align 8
  %6 = alloca ptr, align 8
  %7 = alloca i64, align 8
  %8 = alloca i64, align 8
  %9 = alloca i32, align 4
  store ptr %0, ptr %5, align 8
  store ptr %1, ptr %6, align 8
  store i64 %2, ptr %7, align 8
  store i64 %3, ptr %8, align 8
  %10 = load i64, ptr %7, align 8
  %11 = inttoptr i64 %10 to ptr
  store i32 1, ptr %11, align 4
  %12 = load i64, ptr %8, align 8
  %13 = inttoptr i64 %12 to ptr
  store i32 0, ptr %13, align 4
  %14 = load i64, ptr %7, align 8
  %15 = inttoptr i64 %14 to ptr
  %16 = load i64, ptr %8, align 8
  %17 = inttoptr i64 %16 to ptr
  %18 = call i32 @XkbLibraryVersion(ptr noundef %15, ptr noundef %17)
  store i32 %18, ptr %9, align 4
  %19 = load i32, ptr %9, align 4
  %20 = icmp ne i32 %19, 0
  %21 = select i1 %20, i32 1, i32 0
  %22 = trunc i32 %21 to i8
  ret i8 %22
}