; Function Attrs: nounwind uwtable
define zeroext range(i8 0, 2) i8 @Java_sun_awt_X11_XlibWrapper_XkbLibraryVersion(ptr nocapture noundef readnone %0, ptr nocapture noundef readnone %1, i64 noundef %2, i64 noundef %3) local_unnamed_addr #0 {
  %5 = inttoptr i64 %2 to ptr
  store i32 1, ptr %5, align 4
  %6 = inttoptr i64 %3 to ptr
  store i32 0, ptr %6, align 4
  %7 = tail call i32 @XkbLibraryVersion(ptr noundef nonnull %5, ptr noundef nonnull %6) #14
  %.not = icmp ne i32 %7, 0
  %8 = zext i1 %.not to i8
  ret i8 %8
}